; Function Attrs: nounwind uwtable
define ptr @l_Lean_Compiler_LCNF_ToLCNF_cleanupBinderName(ptr noundef %0, ptr noundef %1, ptr noundef %2, ptr noundef %3, ptr noundef %4, ptr noundef %5) local_unnamed_addr #1 {
  %7 = tail call zeroext i8 @l_Lean_Name_hasMacroScopes(ptr noundef %0) #5
  %8 = icmp eq i8 %7, 0
  br i1 %8, label %9, label %16

9:                                                ; preds = %6
  tail call void @lean_inc_heartbeat() #5
  %10 = tail call noalias ptr @mi_malloc_small(i64 noundef 24) #5
  %11 = icmp eq ptr %10, null
  br i1 %11, label %12, label %lean_alloc_ctor.exit

12:                                               ; preds = %9
  tail call void @lean_internal_panic_out_of_memory() #6
  unreachable

lean_alloc_ctor.exit:                             ; preds = %9
  %13 = getelementptr inbounds nuw i8, ptr %10, i64 4
  store i32 1, ptr %10, align 4, !tbaa !4
  store i32 131096, ptr %13, align 4
  %14 = getelementptr inbounds nuw i8, ptr %10, i64 8
  store ptr %0, ptr %14, align 8, !tbaa !9
  %15 = getelementptr inbounds nuw i8, ptr %10, i64 16
  store ptr %5, ptr %15, align 8, !tbaa !9
  br label %19

16:                                               ; preds = %6
  %17 = tail call ptr @lean_erase_macro_scopes(ptr noundef %0) #5
  %18 = tail call ptr @l_Lean_Compiler_LCNF_mkFreshBinderName(ptr noundef %17, ptr noundef %1, ptr noundef %2, ptr noundef %3, ptr noundef %4, ptr noundef %5) #5
  br label %19

19:                                               ; preds = %16, %lean_alloc_ctor.exit
  %.0 = phi ptr [ %10, %lean_alloc_ctor.exit ], [ %18, %16 ]
  ret ptr %.0
}